; Function Attrs: nounwind uwtable
define dso_local void @qtest_start_stopwatch() local_unnamed_addr #0 {
  %1 = load ptr, ptr @fake_now_lock, align 8, !tbaa !42
  %2 = tail call i32 @CRYPTO_THREAD_read_lock(ptr noundef %1) #10
  %.not.i = icmp eq i32 %2, 0
  br i1 %.not.i, label %qtest_get_time.exit, label %3

3:                                                ; preds = %0
  %.sroa.0.0.copyload.i = load i64, ptr @fake_now.0, align 8, !tbaa !46
  %4 = load ptr, ptr @fake_now_lock, align 8, !tbaa !42
  %5 = tail call i32 @CRYPTO_THREAD_unlock(ptr noundef %4) #10
  br label %qtest_get_time.exit

qtest_get_time.exit:                              ; preds = %0, %3
  %.sroa.02.0.i = phi i64 [ %.sroa.0.0.copyload.i, %3 ], [ 0, %0 ]
  store i64 %.sroa.02.0.i, ptr @start_time.0, align 8, !tbaa !46
  ret void
}